target datalayout = "e-m:e-p270:32:32-p271:32:32-p272:64:64-i64:64-i128:128-f80:128-n8:16:32:64-S128"
target triple = "x86_64-pc-linux-gnu"

%struct.x509_purpose_st = type { i32, i32, i32, ptr, ptr, ptr, ptr }

@.str = private unnamed_addr constant [127 x i8] c"generated/home/dtcxzyw/WorkSpace/Projects/compilers/llvm-opt-benchmark/bench/libquic/libquic/boringssl/crypto/x509v3/v3_purp.c\00", align 1
@xptable = internal global ptr null, align 8

; Function Attrs: nounwind uwtable
define internal void @xptable_free(ptr noundef %0) #0 {
  %2 = alloca ptr, align 8
  store ptr %0, ptr %2, align 8, !tbaa !28
  %3 = load ptr, ptr %2, align 8, !tbaa !28
  %4 = icmp ne ptr %3, null
  br i1 %4, label %6, label %5

5:                                                ; preds = %1
  br label %27

6:                                                ; preds = %1
  %7 = load ptr, ptr %2, align 8, !tbaa !28
  %8 = getelementptr inbounds nuw %struct.x509_purpose_st, ptr %7, i32 0, i32 2
  %9 = load i32, ptr %8, align 8, !tbaa !82
  %10 = and i32 %9, 1
  %11 = icmp ne i32 %10, 0
  br i1 %11, label %12, label %27

12:                                               ; preds = %6
  %13 = load ptr, ptr %2, align 8, !tbaa !28
  %14 = getelementptr inbounds nuw %struct.x509_purpose_st, ptr %13, i32 0, i32 2
  %15 = load i32, ptr %14, align 8, !tbaa !82
  %16 = and i32 %15, 2
  %17 = icmp ne i32 %16, 0
  br i1 %17, label %18, label %25

18:                                               ; preds = %12
  %19 = load ptr, ptr %2, align 8, !tbaa !28
  %20 = getelementptr inbounds nuw %struct.x509_purpose_st, ptr %19, i32 0, i32 4
  %21 = load ptr, ptr %20, align 8, !tbaa !83
  call void @free(ptr noundef %21) #7
  %22 = load ptr, ptr %2, align 8, !tbaa !28
  %23 = getelementptr inbounds nuw %struct.x509_purpose_st, ptr %22, i32 0, i32 5
  %24 = load ptr, ptr %23, align 8, !tbaa !79
  call void @free(ptr noundef %24) #7
  br label %25

25:                                               ; preds = %18, %12
  %26 = load ptr, ptr %2, align 8, !tbaa !28
  call void @free(ptr noundef %26) #7
  br label %27

27:                                               ; preds = %5, %25, %6
  ret void
}

; Function Attrs: nounwind uwtable
define hidden ptr @X509_PURPOSE_get0(i32 noundef %0) #0 {
  %2 = alloca ptr, align 8
  %3 = alloca i32, align 4
  store i32 %0, ptr %3, align 4, !tbaa !11
  %4 = load i32, ptr %3, align 4, !tbaa !11
  %5 = icmp slt i32 %4, 0
  br i1 %5, label %6, label %7

6:                                                ; preds = %1
  store ptr null, ptr %2, align 8
  br label %20

7:                                                ; preds = %1
  %8 = load i32, ptr %3, align 4, !tbaa !11
  %9 = icmp slt i32 %8, 9
  br i1 %9, label %10, label %14

10:                                               ; preds = %7
  %11 = load i32, ptr %3, align 4, !tbaa !11
  %12 = sext i32 %11 to i64
  %13 = getelementptr inbounds %struct.x509_purpose_st, ptr @xstandard, i64 %12
  store ptr %13, ptr %2, align 8
  br label %20

14:                                               ; preds = %7
  %15 = load ptr, ptr @xptable, align 8, !tbaa !74
  %16 = load i32, ptr %3, align 4, !tbaa !11
  %17 = sext i32 %16 to i64
  %18 = sub i64 %17, 9
  %19 = call ptr @sk_value(ptr noundef %15, i64 noundef %18)
  store ptr %19, ptr %2, align 8
  br label %20

20:                                               ; preds = %14, %10, %6
  %21 = load ptr, ptr %2, align 8
  ret ptr %21
}

; Function Attrs: nounwind uwtable
define hidden i32 @X509_PURPOSE_get_by_id(i32 noundef %0) #0 {
  %2 = alloca i32, align 4
  %3 = alloca i32, align 4
  %4 = alloca %struct.x509_purpose_st, align 8
  %5 = alloca i64, align 8
  %6 = alloca i32, align 4
  store i32 %0, ptr %3, align 4, !tbaa !11
  call void @llvm.lifetime.start.p0(i64 48, ptr %4) #7
  call void @llvm.lifetime.start.p0(i64 8, ptr %5) #7
  %7 = load i32, ptr %3, align 4, !tbaa !11
  %8 = icmp sge i32 %7, 1
  br i1 %8, label %9, label %15

9:                                                ; preds = %1
  %10 = load i32, ptr %3, align 4, !tbaa !11
  %11 = icmp sle i32 %10, 9
  br i1 %11, label %12, label %15

12:                                               ; preds = %9
  %13 = load i32, ptr %3, align 4, !tbaa !11
  %14 = sub nsw i32 %13, 1
  store i32 %14, ptr %2, align 4
  store i32 1, ptr %6, align 4
  br label %30

15:                                               ; preds = %9, %1
  %16 = load i32, ptr %3, align 4, !tbaa !11
  %17 = getelementptr inbounds nuw %struct.x509_purpose_st, ptr %4, i32 0, i32 0
  store i32 %16, ptr %17, align 8, !tbaa !73
  %18 = load ptr, ptr @xptable, align 8, !tbaa !74
  %19 = icmp ne ptr %18, null
  br i1 %19, label %21, label %20

20:                                               ; preds = %15
  store i32 -1, ptr %2, align 4
  store i32 1, ptr %6, align 4
  br label %30

21:                                               ; preds = %15
  %22 = load ptr, ptr @xptable, align 8, !tbaa !74
  %23 = call i32 @sk_find(ptr noundef %22, ptr noundef %5, ptr noundef %4)
  %24 = icmp ne i32 %23, 0
  br i1 %24, label %26, label %25

25:                                               ; preds = %21
  store i32 -1, ptr %2, align 4
  store i32 1, ptr %6, align 4
  br label %30

26:                                               ; preds = %21
  %27 = load i64, ptr %5, align 8, !tbaa !62
  %28 = add i64 %27, 9
  %29 = trunc i64 %28 to i32
  store i32 %29, ptr %2, align 4
  store i32 1, ptr %6, align 4
  br label %30

30:                                               ; preds = %26, %25, %20, %12
  call void @llvm.lifetime.end.p0(i64 8, ptr %5) #7
  call void @llvm.lifetime.end.p0(i64 48, ptr %4) #7
  %31 = load i32, ptr %2, align 4
  ret i32 %31
}

; Function Attrs: nounwind uwtable
define hidden i32 @X509_PURPOSE_add(i32 noundef %0, i32 noundef %1, i32 noundef %2, ptr noundef %3, ptr noundef %4, ptr noundef %5, ptr noundef %6) #0 {
  %8 = alloca i32, align 4
  %9 = alloca i32, align 4
  %10 = alloca i32, align 4
  %11 = alloca i32, align 4
  %12 = alloca ptr, align 8
  %13 = alloca ptr, align 8
  %14 = alloca ptr, align 8
  %15 = alloca ptr, align 8
  %16 = alloca i32, align 4
  %17 = alloca ptr, align 8
  %18 = alloca ptr, align 8
  %19 = alloca ptr, align 8
  %20 = alloca i32, align 4
  store i32 %0, ptr %9, align 4, !tbaa !11
  store i32 %1, ptr %10, align 4, !tbaa !11
  store i32 %2, ptr %11, align 4, !tbaa !11
  store ptr %3, ptr %12, align 8, !tbaa !81
  store ptr %4, ptr %13, align 8, !tbaa !78
  store ptr %5, ptr %14, align 8, !tbaa !78
  store ptr %6, ptr %15, align 8, !tbaa !81
  call void @llvm.lifetime.start.p0(i64 4, ptr %16) #7
  call void @llvm.lifetime.start.p0(i64 8, ptr %17) #7
  call void @llvm.lifetime.start.p0(i64 8, ptr %18) #7
  call void @llvm.lifetime.start.p0(i64 8, ptr %19) #7
  %21 = load i32, ptr %11, align 4, !tbaa !11
  %22 = and i32 %21, -2
  store i32 %22, ptr %11, align 4, !tbaa !11
  %23 = load i32, ptr %11, align 4, !tbaa !11
  %24 = or i32 %23, 2
  store i32 %24, ptr %11, align 4, !tbaa !11
  %25 = load i32, ptr %9, align 4, !tbaa !11
  %26 = call i32 @X509_PURPOSE_get_by_id(i32 noundef %25)
  store i32 %26, ptr %16, align 4, !tbaa !11
  %27 = load i32, ptr %16, align 4, !tbaa !11
  %28 = icmp eq i32 %27, -1
  br i1 %28, label %29, label %36

29:                                               ; preds = %7
  %30 = call noalias ptr @malloc(i64 noundef 48) #9
  store ptr %30, ptr %17, align 8, !tbaa !28
  %31 = icmp ne ptr %30, null
  br i1 %31, label %33, label %32

32:                                               ; preds = %29
  call void @ERR_put_error(i32 noundef 20, i32 noundef 0, i32 noundef 65, ptr noundef @.str, i32 noundef 234)
  store i32 0, ptr %8, align 4
  store i32 1, ptr %20, align 4
  br label %125

33:                                               ; preds = %29
  %34 = load ptr, ptr %17, align 8, !tbaa !28
  %35 = getelementptr inbounds nuw %struct.x509_purpose_st, ptr %34, i32 0, i32 2
  store i32 1, ptr %35, align 8, !tbaa !82
  br label %39

36:                                               ; preds = %7
  %37 = load i32, ptr %16, align 4, !tbaa !11
  %38 = call ptr @X509_PURPOSE_get0(i32 noundef %37)
  store ptr %38, ptr %17, align 8, !tbaa !28
  br label %39

39:                                               ; preds = %36, %33
  %40 = load ptr, ptr %13, align 8, !tbaa !78
  %41 = call ptr @BUF_strdup(ptr noundef %40)
  store ptr %41, ptr %18, align 8, !tbaa !78
  %42 = load ptr, ptr %14, align 8, !tbaa !78
  %43 = call ptr @BUF_strdup(ptr noundef %42)
  store ptr %43, ptr %19, align 8, !tbaa !78
  %44 = load ptr, ptr %18, align 8, !tbaa !78
  %45 = icmp eq ptr %44, null
  br i1 %45, label %49, label %46

46:                                               ; preds = %39
  %47 = load ptr, ptr %19, align 8, !tbaa !78
  %48 = icmp eq ptr %47, null
  br i1 %48, label %49, label %65

49:                                               ; preds = %46, %39
  call void @ERR_put_error(i32 noundef 20, i32 noundef 0, i32 noundef 65, ptr noundef @.str, i32 noundef 245)
  %50 = load ptr, ptr %18, align 8, !tbaa !78
  %51 = icmp ne ptr %50, null
  br i1 %51, label %52, label %54

52:                                               ; preds = %49
  %53 = load ptr, ptr %18, align 8, !tbaa !78
  call void @free(ptr noundef %53) #7
  br label %54

54:                                               ; preds = %52, %49
  %55 = load ptr, ptr %19, align 8, !tbaa !78
  %56 = icmp ne ptr %55, null
  br i1 %56, label %57, label %59

57:                                               ; preds = %54
  %58 = load ptr, ptr %19, align 8, !tbaa !78
  call void @free(ptr noundef %58) #7
  br label %59

59:                                               ; preds = %57, %54
  %60 = load i32, ptr %16, align 4, !tbaa !11
  %61 = icmp eq i32 %60, -1
  br i1 %61, label %62, label %64

62:                                               ; preds = %59
  %63 = load ptr, ptr %17, align 8, !tbaa !28
  call void @free(ptr noundef %63) #7
  br label %64

64:                                               ; preds = %62, %59
  store i32 0, ptr %8, align 4
  store i32 1, ptr %20, align 4
  br label %125

65:                                               ; preds = %46
  %66 = load ptr, ptr %17, align 8, !tbaa !28
  %67 = getelementptr inbounds nuw %struct.x509_purpose_st, ptr %66, i32 0, i32 2
  %68 = load i32, ptr %67, align 8, !tbaa !82
  %69 = and i32 %68, 2
  %70 = icmp ne i32 %69, 0
  br i1 %70, label %71, label %78

71:                                               ; preds = %65
  %72 = load ptr, ptr %17, align 8, !tbaa !28
  %73 = getelementptr inbounds nuw %struct.x509_purpose_st, ptr %72, i32 0, i32 4
  %74 = load ptr, ptr %73, align 8, !tbaa !83
  call void @free(ptr noundef %74) #7
  %75 = load ptr, ptr %17, align 8, !tbaa !28
  %76 = getelementptr inbounds nuw %struct.x509_purpose_st, ptr %75, i32 0, i32 5
  %77 = load ptr, ptr %76, align 8, !tbaa !79
  call void @free(ptr noundef %77) #7
  br label %78

78:                                               ; preds = %71, %65
  %79 = load ptr, ptr %18, align 8, !tbaa !78
  %80 = load ptr, ptr %17, align 8, !tbaa !28
  %81 = getelementptr inbounds nuw %struct.x509_purpose_st, ptr %80, i32 0, i32 4
  store ptr %79, ptr %81, align 8, !tbaa !83
  %82 = load ptr, ptr %19, align 8, !tbaa !78
  %83 = load ptr, ptr %17, align 8, !tbaa !28
  %84 = getelementptr inbounds nuw %struct.x509_purpose_st, ptr %83, i32 0, i32 5
  store ptr %82, ptr %84, align 8, !tbaa !79
  %85 = load ptr, ptr %17, align 8, !tbaa !28
  %86 = getelementptr inbounds nuw %struct.x509_purpose_st, ptr %85, i32 0, i32 2
  %87 = load i32, ptr %86, align 8, !tbaa !82
  %88 = and i32 %87, 1
  store i32 %88, ptr %86, align 8, !tbaa !82
  %89 = load i32, ptr %11, align 4, !tbaa !11
  %90 = load ptr, ptr %17, align 8, !tbaa !28
  %91 = getelementptr inbounds nuw %struct.x509_purpose_st, ptr %90, i32 0, i32 2
  %92 = load i32, ptr %91, align 8, !tbaa !82
  %93 = or i32 %92, %89
  store i32 %93, ptr %91, align 8, !tbaa !82
  %94 = load i32, ptr %9, align 4, !tbaa !11
  %95 = load ptr, ptr %17, align 8, !tbaa !28
  %96 = getelementptr inbounds nuw %struct.x509_purpose_st, ptr %95, i32 0, i32 0
  store i32 %94, ptr %96, align 8, !tbaa !73
  %97 = load i32, ptr %10, align 4, !tbaa !11
  %98 = load ptr, ptr %17, align 8, !tbaa !28
  %99 = getelementptr inbounds nuw %struct.x509_purpose_st, ptr %98, i32 0, i32 1
  store i32 %97, ptr %99, align 4, !tbaa !84
  %100 = load ptr, ptr %12, align 8, !tbaa !81
  %101 = load ptr, ptr %17, align 8, !tbaa !28
  %102 = getelementptr inbounds nuw %struct.x509_purpose_st, ptr %101, i32 0, i32 3
  store ptr %100, ptr %102, align 8, !tbaa !30
  %103 = load ptr, ptr %15, align 8, !tbaa !81
  %104 = load ptr, ptr %17, align 8, !tbaa !28
  %105 = getelementptr inbounds nuw %struct.x509_purpose_st, ptr %104, i32 0, i32 6
  store ptr %103, ptr %105, align 8, !tbaa !85
  %106 = load i32, ptr %16, align 4, !tbaa !11
  %107 = icmp eq i32 %106, -1
  br i1 %107, label %108, label %124

108:                                              ; preds = %78
  %109 = load ptr, ptr @xptable, align 8, !tbaa !74
  %110 = icmp ne ptr %109, null
  br i1 %110, label %116, label %111

111:                                              ; preds = %108
  %112 = call ptr @sk_new(ptr noundef @xp_cmp)
  store ptr %112, ptr @xptable, align 8, !tbaa !74
  %113 = icmp ne ptr %112, null
  br i1 %113, label %116, label %114

114:                                              ; preds = %111
  call void @ERR_put_error(i32 noundef 20, i32 noundef 0, i32 noundef 65, ptr noundef @.str, i32 noundef 276)
  %115 = load ptr, ptr %17, align 8, !tbaa !28
  call void @xptable_free(ptr noundef %115)
  store i32 0, ptr %8, align 4
  store i32 1, ptr %20, align 4
  br label %125

116:                                              ; preds = %111, %108
  %117 = load ptr, ptr @xptable, align 8, !tbaa !74
  %118 = load ptr, ptr %17, align 8, !tbaa !28
  %119 = call i64 @sk_push(ptr noundef %117, ptr noundef %118)
  %120 = icmp ne i64 %119, 0
  br i1 %120, label %123, label %121

121:                                              ; preds = %116
  call void @ERR_put_error(i32 noundef 20, i32 noundef 0, i32 noundef 65, ptr noundef @.str, i32 noundef 281)
  %122 = load ptr, ptr %17, align 8, !tbaa !28
  call void @xptable_free(ptr noundef %122)
  store i32 0, ptr %8, align 4
  store i32 1, ptr %20, align 4
  br label %125

123:                                              ; preds = %116
  br label %124

124:                                              ; preds = %123, %78
  store i32 1, ptr %8, align 4
  store i32 1, ptr %20, align 4
  br label %125

125:                                              ; preds = %124, %121, %114, %64, %32
  call void @llvm.lifetime.end.p0(i64 8, ptr %19) #7
  call void @llvm.lifetime.end.p0(i64 8, ptr %18) #7
  call void @llvm.lifetime.end.p0(i64 8, ptr %17) #7
  call void @llvm.lifetime.end.p0(i64 4, ptr %16) #7
  %126 = load i32, ptr %8, align 4
  ret i32 %126
}