; Function Attrs: nounwind uwtable
define hidden range(i32 0, 2) i32 @X509_PURPOSE_add(i32 noundef %0, i32 noundef %1, i32 noundef %2, ptr noundef %3, ptr noundef %4, ptr noundef %5, ptr noundef %6) local_unnamed_addr #0 {
  %8 = alloca %struct.x509_purpose_st, align 8
  %9 = alloca i64, align 8
  %10 = and i32 %2, -4
  call void @llvm.lifetime.start.p0(i64 48, ptr nonnull %8) #10
  call void @llvm.lifetime.start.p0(i64 8, ptr nonnull %9) #10
  %11 = add i32 %0, -1
  %or.cond.i = icmp ult i32 %11, 9
  br i1 %or.cond.i, label %.thread63, label %12

.thread63:                                        ; preds = %7
  call void @llvm.lifetime.end.p0(i64 8, ptr nonnull %9) #10
  call void @llvm.lifetime.end.p0(i64 48, ptr nonnull %8) #10
  br label %29

12:                                               ; preds = %7
  store i32 %0, ptr %8, align 8, !tbaa !25
  %13 = load ptr, ptr @xptable, align 8, !tbaa !27
  %.not.i = icmp eq ptr %13, null
  br i1 %.not.i, label %X509_PURPOSE_get_by_id.exit.thread, label %14

14:                                               ; preds = %12
  %15 = call i32 @sk_find(ptr noundef nonnull %13, ptr noundef nonnull %9, ptr noundef nonnull %8) #10
  %.not8.i = icmp eq i32 %15, 0
  br i1 %.not8.i, label %X509_PURPOSE_get_by_id.exit.thread, label %X509_PURPOSE_get_by_id.exit

X509_PURPOSE_get_by_id.exit.thread:               ; preds = %12, %14
  call void @llvm.lifetime.end.p0(i64 8, ptr nonnull %9) #10
  call void @llvm.lifetime.end.p0(i64 48, ptr nonnull %8) #10
  br label %20

X509_PURPOSE_get_by_id.exit:                      ; preds = %14
  %16 = load i64, ptr %9, align 8, !tbaa !29
  %17 = trunc i64 %16 to i32
  %18 = add i32 %17, 9
  call void @llvm.lifetime.end.p0(i64 8, ptr nonnull %9) #10
  call void @llvm.lifetime.end.p0(i64 48, ptr nonnull %8) #10
  %19 = icmp eq i32 %18, -1
  br i1 %19, label %20, label %25

20:                                               ; preds = %X509_PURPOSE_get_by_id.exit.thread, %X509_PURPOSE_get_by_id.exit
  %21 = call noalias dereferenceable_or_null(48) ptr @malloc(i64 noundef 48) #12
  %.not = icmp eq ptr %21, null
  br i1 %.not, label %22, label %23

22:                                               ; preds = %20
  call void @ERR_put_error(i32 noundef 20, i32 noundef 0, i32 noundef 65, ptr noundef nonnull @.str, i32 noundef 234) #10
  br label %xptable_free.exit

23:                                               ; preds = %20
  %24 = getelementptr inbounds nuw i8, ptr %21, i64 8
  store i32 1, ptr %24, align 8, !tbaa !79
  br label %X509_PURPOSE_get0.exit

25:                                               ; preds = %X509_PURPOSE_get_by_id.exit
  %26 = icmp slt i32 %18, 0
  br i1 %26, label %X509_PURPOSE_get0.exit, label %27

27:                                               ; preds = %25
  %28 = icmp ugt i32 %17, -10
  br i1 %28, label %29, label %32

29:                                               ; preds = %.thread63, %27
  %.0.i606265 = phi i32 [ %11, %.thread63 ], [ %18, %27 ]
  %30 = zext nneg i32 %.0.i606265 to i64
  %31 = getelementptr inbounds nuw %struct.x509_purpose_st, ptr @xstandard, i64 %30
  br label %X509_PURPOSE_get0.exit

32:                                               ; preds = %27
  %33 = load ptr, ptr @xptable, align 8, !tbaa !27
  %34 = zext nneg i32 %18 to i64
  %35 = add nsw i64 %34, -9
  %36 = call ptr @sk_value(ptr noundef %33, i64 noundef %35) #10
  br label %X509_PURPOSE_get0.exit

X509_PURPOSE_get0.exit:                           ; preds = %32, %29, %25, %23
  %37 = phi i1 [ true, %23 ], [ false, %29 ], [ false, %32 ], [ false, %25 ]
  %.039 = phi ptr [ %21, %23 ], [ %31, %29 ], [ %36, %32 ], [ null, %25 ]
  %38 = call ptr @BUF_strdup(ptr noundef %4) #10
  %39 = call ptr @BUF_strdup(ptr noundef %5) #10
  %40 = icmp eq ptr %38, null
  %41 = icmp eq ptr %39, null
  %or.cond = select i1 %40, i1 true, i1 %41
  br i1 %or.cond, label %42, label %48

42:                                               ; preds = %X509_PURPOSE_get0.exit
  call void @ERR_put_error(i32 noundef 20, i32 noundef 0, i32 noundef 65, ptr noundef nonnull @.str, i32 noundef 245) #10
  br i1 %40, label %44, label %43

43:                                               ; preds = %42
  call void @free(ptr noundef nonnull %38) #10
  br label %44

44:                                               ; preds = %43, %42
  br i1 %41, label %46, label %45

45:                                               ; preds = %44
  call void @free(ptr noundef nonnull %39) #10
  br label %46

46:                                               ; preds = %45, %44
  br i1 %37, label %47, label %xptable_free.exit

47:                                               ; preds = %46
  call void @free(ptr noundef %.039) #10
  br label %xptable_free.exit

48:                                               ; preds = %X509_PURPOSE_get0.exit
  %49 = getelementptr inbounds nuw i8, ptr %.039, i64 8
  %50 = load i32, ptr %49, align 8, !tbaa !79
  %51 = and i32 %50, 2
  %.not45 = icmp eq i32 %51, 0
  br i1 %.not45, label %57, label %52

52:                                               ; preds = %48
  %53 = getelementptr inbounds nuw i8, ptr %.039, i64 24
  %54 = load ptr, ptr %53, align 8, !tbaa !80
  call void @free(ptr noundef %54) #10
  %55 = getelementptr inbounds nuw i8, ptr %.039, i64 32
  %56 = load ptr, ptr %55, align 8, !tbaa !77
  call void @free(ptr noundef %56) #10
  %.pre = load i32, ptr %49, align 8, !tbaa !79
  br label %57

57:                                               ; preds = %52, %48
  %58 = phi i32 [ %.pre, %52 ], [ %50, %48 ]
  %59 = getelementptr inbounds nuw i8, ptr %.039, i64 24
  store ptr %38, ptr %59, align 8, !tbaa !80
  %60 = getelementptr inbounds nuw i8, ptr %.039, i64 32
  store ptr %39, ptr %60, align 8, !tbaa !77
  %61 = and i32 %58, 1
  %62 = or disjoint i32 %10, %61
  %63 = or disjoint i32 %62, 2
  store i32 %63, ptr %49, align 8, !tbaa !79
  store i32 %0, ptr %.039, align 8, !tbaa !25
  %64 = getelementptr inbounds nuw i8, ptr %.039, i64 4
  store i32 %1, ptr %64, align 4, !tbaa !81
  %65 = getelementptr inbounds nuw i8, ptr %.039, i64 16
  store ptr %3, ptr %65, align 8, !tbaa !30
  %66 = getelementptr inbounds nuw i8, ptr %.039, i64 40
  store ptr %6, ptr %66, align 8, !tbaa !82
  br i1 %37, label %67, label %xptable_free.exit

67:                                               ; preds = %57
  %68 = load ptr, ptr @xptable, align 8, !tbaa !27
  %.not46 = icmp eq ptr %68, null
  br i1 %.not46, label %69, label %80

69:                                               ; preds = %67
  %70 = call ptr @sk_new(ptr noundef nonnull @xp_cmp) #10
  store ptr %70, ptr @xptable, align 8, !tbaa !27
  %.not47 = icmp eq ptr %70, null
  br i1 %.not47, label %71, label %80

71:                                               ; preds = %69
  call void @ERR_put_error(i32 noundef 20, i32 noundef 0, i32 noundef 65, ptr noundef nonnull @.str, i32 noundef 276) #10
  %72 = load i32, ptr %49, align 8, !tbaa !79
  %73 = and i32 %72, 1
  %.not6.i = icmp eq i32 %73, 0
  br i1 %.not6.i, label %xptable_free.exit, label %74

74:                                               ; preds = %71
  %75 = and i32 %72, 2
  %.not7.i = icmp eq i32 %75, 0
  br i1 %.not7.i, label %79, label %76

76:                                               ; preds = %74
  %77 = load ptr, ptr %59, align 8, !tbaa !80
  call void @free(ptr noundef %77) #10
  %78 = load ptr, ptr %60, align 8, !tbaa !77
  call void @free(ptr noundef %78) #10
  br label %79

79:                                               ; preds = %76, %74
  call void @free(ptr noundef nonnull %.039) #10
  br label %xptable_free.exit

80:                                               ; preds = %69, %67
  %81 = phi ptr [ %70, %69 ], [ %68, %67 ]
  %82 = call i64 @sk_push(ptr noundef nonnull %81, ptr noundef nonnull %.039) #10
  %.not48 = icmp eq i64 %82, 0
  br i1 %.not48, label %83, label %xptable_free.exit

83:                                               ; preds = %80
  call void @ERR_put_error(i32 noundef 20, i32 noundef 0, i32 noundef 65, ptr noundef nonnull @.str, i32 noundef 281) #10
  %84 = load i32, ptr %49, align 8, !tbaa !79
  %85 = and i32 %84, 1
  %.not6.i54 = icmp eq i32 %85, 0
  br i1 %.not6.i54, label %xptable_free.exit, label %86

86:                                               ; preds = %83
  %87 = and i32 %84, 2
  %.not7.i55 = icmp eq i32 %87, 0
  br i1 %.not7.i55, label %91, label %88

88:                                               ; preds = %86
  %89 = load ptr, ptr %59, align 8, !tbaa !80
  call void @free(ptr noundef %89) #10
  %90 = load ptr, ptr %60, align 8, !tbaa !77
  call void @free(ptr noundef %90) #10
  br label %91

91:                                               ; preds = %88, %86
  call void @free(ptr noundef nonnull %.039) #10
  br label %xptable_free.exit

xptable_free.exit:                                ; preds = %91, %83, %79, %71, %57, %80, %46, %47, %22
  %.0 = phi i32 [ 0, %22 ], [ 0, %47 ], [ 0, %46 ], [ 1, %80 ], [ 1, %57 ], [ 0, %71 ], [ 0, %79 ], [ 0, %83 ], [ 0, %91 ]
  ret i32 %.0
}